target datalayout = "e-m:e-p270:32:32-p271:32:32-p272:64:64-i64:64-i128:128-f80:128-n8:16:32:64-S128"
target triple = "x86_64-pc-linux-gnu"

%struct.curltime = type { i64, i32 }

; Function Attrs: nounwind uwtable
define internal i32 @tftp_doing(ptr noundef %0, ptr noundef %1) #0 {
  %3 = alloca ptr, align 8
  %4 = alloca ptr, align 8
  %5 = alloca i32, align 4
  %6 = alloca %struct.curltime, align 8
  store ptr %0, ptr %3, align 8, !tbaa !3
  store ptr %1, ptr %4, align 8, !tbaa !90
  call void @llvm.lifetime.start.p0(i64 4, ptr %5) #6
  %7 = load ptr, ptr %3, align 8, !tbaa !3
  %8 = load ptr, ptr %4, align 8, !tbaa !90
  %9 = call i32 @tftp_multi_statemach(ptr noundef %7, ptr noundef %8)
  store i32 %9, ptr %5, align 4, !tbaa !95
  %10 = load ptr, ptr %4, align 8, !tbaa !90
  %11 = load i8, ptr %10, align 1, !tbaa !93, !range !118, !noundef !119
  %12 = trunc i8 %11 to i1
  br i1 %12, label %13, label %17

13:                                               ; preds = %2
  br label %14

14:                                               ; preds = %13
  br label %15

15:                                               ; preds = %14
  br label %16

16:                                               ; preds = %15
  br label %39

17:                                               ; preds = %2
  %18 = load i32, ptr %5, align 4, !tbaa !95
  %19 = icmp ne i32 %18, 0
  br i1 %19, label %38, label %20

20:                                               ; preds = %17
  %21 = load ptr, ptr %3, align 8, !tbaa !3
  %22 = call i32 @Curl_pgrsUpdate(ptr noundef %21)
  %23 = icmp ne i32 %22, 0
  br i1 %23, label %24, label %25

24:                                               ; preds = %20
  store i32 42, ptr %5, align 4, !tbaa !95
  br label %37

25:                                               ; preds = %20
  %26 = load ptr, ptr %3, align 8, !tbaa !3
  %27 = call { i64, i32 } @Curl_now()
  %28 = getelementptr inbounds nuw { i64, i32 }, ptr %6, i32 0, i32 0
  %29 = extractvalue { i64, i32 } %27, 0
  store i64 %29, ptr %28, align 8
  %30 = getelementptr inbounds nuw { i64, i32 }, ptr %6, i32 0, i32 1
  %31 = extractvalue { i64, i32 } %27, 1
  store i32 %31, ptr %30, align 8
  %32 = getelementptr inbounds nuw { i64, i32 }, ptr %6, i32 0, i32 0
  %33 = load i64, ptr %32, align 8
  %34 = getelementptr inbounds nuw { i64, i32 }, ptr %6, i32 0, i32 1
  %35 = load i32, ptr %34, align 8
  %36 = call i32 @Curl_speedcheck(ptr noundef %26, i64 %33, i32 %35)
  store i32 %36, ptr %5, align 4, !tbaa !95
  br label %37

37:                                               ; preds = %25, %24
  br label %38

38:                                               ; preds = %37, %17
  br label %39

39:                                               ; preds = %38, %16
  %40 = load i32, ptr %5, align 4, !tbaa !95
  call void @llvm.lifetime.end.p0(i64 4, ptr %5) #6
  ret i32 %40
}