; Function Attrs: nounwind uwtable
define internal i32 @tftp_doing(ptr noundef %0, ptr noundef captures(none) initializes((0, 1)) %1) #0 {
  %3 = tail call i32 @tftp_multi_statemach(ptr noundef %0, ptr noundef %1)
  %4 = load i8, ptr %1, align 1, !tbaa !87, !range !122, !noundef !123
  %5 = trunc nuw i8 %4 to i1
  %6 = icmp ne i32 %3, 0
  %or.cond = select i1 %5, i1 true, i1 %6
  br i1 %or.cond, label %14, label %7

7:                                                ; preds = %2
  %8 = tail call i32 @Curl_pgrsUpdate(ptr noundef %0) #13
  %.not = icmp eq i32 %8, 0
  br i1 %.not, label %9, label %14

9:                                                ; preds = %7
  %10 = tail call { i64, i32 } @Curl_now() #13
  %11 = extractvalue { i64, i32 } %10, 0
  %12 = extractvalue { i64, i32 } %10, 1
  %13 = tail call i32 @Curl_speedcheck(ptr noundef %0, i64 %11, i32 %12) #13
  br label %14

14:                                               ; preds = %7, %9, %2
  %.0 = phi i32 [ %3, %2 ], [ %13, %9 ], [ 42, %7 ]
  ret i32 %.0
}